target datalayout = "e-m:e-p270:32:32-p271:32:32-p272:64:64-i64:64-i128:128-f80:128-n8:16:32:64-S128"
target triple = "x86_64-pc-linux-gnu"

; Function Attrs: inlinehint nounwind uwtable
define internal i32 @shake_xof(ptr noundef %0, ptr noundef %1, ptr noundef %2, i64 noundef %3, ptr noundef %4, i64 noundef %5) #3 {
  %7 = alloca ptr, align 8
  %8 = alloca ptr, align 8
  %9 = alloca ptr, align 8
  %10 = alloca i64, align 8
  %11 = alloca ptr, align 8
  %12 = alloca i64, align 8
  store ptr %0, ptr %7, align 8, !tbaa !3
  store ptr %1, ptr %8, align 8, !tbaa !8
  store ptr %2, ptr %9, align 8, !tbaa !10
  store i64 %3, ptr %10, align 8, !tbaa !21
  store ptr %4, ptr %11, align 8, !tbaa !10
  store i64 %5, ptr %12, align 8, !tbaa !21
  %13 = load ptr, ptr %7, align 8, !tbaa !3
  %14 = load ptr, ptr %8, align 8, !tbaa !8
  %15 = call i32 @EVP_DigestInit_ex2(ptr noundef %13, ptr noundef %14, ptr noundef null)
  %16 = icmp eq i32 %15, 1
  br i1 %16, label %17, label %29

17:                                               ; preds = %6
  %18 = load ptr, ptr %7, align 8, !tbaa !3
  %19 = load ptr, ptr %9, align 8, !tbaa !10
  %20 = load i64, ptr %10, align 8, !tbaa !21
  %21 = call i32 @EVP_DigestUpdate(ptr noundef %18, ptr noundef %19, i64 noundef %20)
  %22 = icmp eq i32 %21, 1
  br i1 %22, label %23, label %29

23:                                               ; preds = %17
  %24 = load ptr, ptr %7, align 8, !tbaa !3
  %25 = load ptr, ptr %11, align 8, !tbaa !10
  %26 = load i64, ptr %12, align 8, !tbaa !21
  %27 = call i32 @EVP_DigestSqueeze(ptr noundef %24, ptr noundef %25, i64 noundef %26)
  %28 = icmp eq i32 %27, 1
  br label %29

29:                                               ; preds = %23, %17, %6
  %30 = phi i1 [ false, %17 ], [ false, %6 ], [ %28, %23 ]
  %31 = zext i1 %30 to i32
  ret i32 %31
}

; Function Attrs: nounwind uwtable
define i32 @ossl_ml_dsa_poly_expand_mask(ptr noundef %0, ptr noundef %1, i64 noundef %2, i32 noundef %3, ptr noundef %4, ptr noundef %5) #0 {
  %7 = alloca ptr, align 8
  %8 = alloca ptr, align 8
  %9 = alloca i64, align 8
  %10 = alloca i32, align 4
  %11 = alloca ptr, align 8
  %12 = alloca ptr, align 8
  %13 = alloca [640 x i8], align 16
  %14 = alloca i64, align 8
  store ptr %0, ptr %7, align 8, !tbaa !20
  store ptr %1, ptr %8, align 8, !tbaa !10
  store i64 %2, ptr %9, align 8, !tbaa !21
  store i32 %3, ptr %10, align 4, !tbaa !14
  store ptr %4, ptr %11, align 8, !tbaa !3
  store ptr %5, ptr %12, align 8, !tbaa !8
  call void @llvm.lifetime.start.p0(i64 640, ptr %13) #6
  call void @llvm.lifetime.start.p0(i64 8, ptr %14) #6
  %15 = load i32, ptr %10, align 4, !tbaa !14
  %16 = icmp eq i32 %15, 524288
  %17 = select i1 %16, i32 20, i32 18
  %18 = mul nsw i32 32, %17
  %19 = sext i32 %18 to i64
  store i64 %19, ptr %14, align 8, !tbaa !21
  %20 = load ptr, ptr %11, align 8, !tbaa !3
  %21 = load ptr, ptr %12, align 8, !tbaa !8
  %22 = load ptr, ptr %8, align 8, !tbaa !10
  %23 = load i64, ptr %9, align 8, !tbaa !21
  %24 = getelementptr inbounds [640 x i8], ptr %13, i64 0, i64 0
  %25 = load i64, ptr %14, align 8, !tbaa !21
  %26 = call i32 @shake_xof(ptr noundef %20, ptr noundef %21, ptr noundef %22, i64 noundef %23, ptr noundef %24, i64 noundef %25)
  %27 = icmp ne i32 %26, 0
  br i1 %27, label %28, label %35

28:                                               ; preds = %6
  %29 = load ptr, ptr %7, align 8, !tbaa !20
  %30 = getelementptr inbounds [640 x i8], ptr %13, i64 0, i64 0
  %31 = load i64, ptr %14, align 8, !tbaa !21
  %32 = load i32, ptr %10, align 4, !tbaa !14
  %33 = call i32 @ossl_ml_dsa_poly_decode_expand_mask(ptr noundef %29, ptr noundef %30, i64 noundef %31, i32 noundef %32)
  %34 = icmp ne i32 %33, 0
  br label %35

35:                                               ; preds = %28, %6
  %36 = phi i1 [ false, %6 ], [ %34, %28 ]
  %37 = zext i1 %36 to i32
  call void @llvm.lifetime.end.p0(i64 8, ptr %14) #6
  call void @llvm.lifetime.end.p0(i64 640, ptr %13) #6
  ret i32 %37
}