; Function Attrs: nounwind uwtable
define range(i32 0, 2) i32 @ossl_ml_dsa_poly_expand_mask(ptr noundef %0, ptr noundef %1, i64 noundef %2, i32 noundef %3, ptr noundef %4, ptr noundef %5) local_unnamed_addr #0 {
  %7 = alloca [640 x i8], align 16
  call void @llvm.lifetime.start.p0(i64 640, ptr nonnull %7) #6
  %8 = icmp eq i32 %3, 524288
  %9 = select i1 %8, i64 640, i64 576
  %10 = tail call i32 @EVP_DigestInit_ex2(ptr noundef %4, ptr noundef %5, ptr noundef null) #6
  %11 = icmp eq i32 %10, 1
  br i1 %11, label %12, label %shake_xof.exit.thread

12:                                               ; preds = %6
  %13 = tail call i32 @EVP_DigestUpdate(ptr noundef %4, ptr noundef %1, i64 noundef %2) #6
  %14 = icmp eq i32 %13, 1
  br i1 %14, label %shake_xof.exit, label %shake_xof.exit.thread

shake_xof.exit:                                   ; preds = %12
  %15 = call i32 @EVP_DigestSqueeze(ptr noundef %4, ptr noundef nonnull %7, i64 noundef range(i64 136, 641) %9) #6
  %.not = icmp eq i32 %15, 1
  br i1 %.not, label %16, label %shake_xof.exit.thread

16:                                               ; preds = %shake_xof.exit
  %17 = call i32 @ossl_ml_dsa_poly_decode_expand_mask(ptr noundef %0, ptr noundef nonnull %7, i64 noundef %9, i32 noundef %3) #6
  %18 = icmp ne i32 %17, 0
  %19 = zext i1 %18 to i32
  br label %shake_xof.exit.thread

shake_xof.exit.thread:                            ; preds = %6, %12, %16, %shake_xof.exit
  %20 = phi i32 [ 0, %shake_xof.exit ], [ %19, %16 ], [ 0, %12 ], [ 0, %6 ]
  call void @llvm.lifetime.end.p0(i64 640, ptr nonnull %7) #6
  ret i32 %20
}